#include <math.h>
#include <stdio.h>
#include <stdlib.h>
#include <string.h>

int main()
{
	int i,len[300];
	char s[300][100];
	for(i=0;i<300;i++)
		scanf("%s",s[i]);
	for(i=0;i<299;i++){
		len[i]=strlen(s[i]);
		if(strcmp(s[i+1],"\0")>0)
			printf("%d,",len[i]);
		if(strcmp(s[i+1],"\0")==0){
			printf("%d",len[i]);
			break;
		}
	}
	return 0;
}